; Function Attrs: nounwind uwtable
define dso_local i32 @repo_hold_locked_index(ptr noundef readonly captures(none) %0, ptr noundef %1, i32 noundef %2) local_unnamed_addr #0 {
  %4 = getelementptr inbounds nuw i8, ptr %0, i64 232
  %5 = load ptr, ptr %4, align 8, !tbaa !53
  %.not = icmp eq ptr %5, null
  br i1 %.not, label %6, label %7

6:                                                ; preds = %3
  tail call void (ptr, i32, ptr, ...) @BUG_fl(ptr noundef nonnull @.str, i32 noundef 454, ptr noundef nonnull @.str.11) #11
  unreachable

7:                                                ; preds = %3
  %8 = tail call i32 @hold_lock_file_for_update_timeout_mode(ptr noundef %1, ptr noundef nonnull %5, i32 noundef %2, i64 noundef 0, i32 noundef 438) #10
  ret i32 %8
}